target datalayout = "e-m:e-p270:32:32-p271:32:32-p272:64:64-i64:64-i128:128-f80:128-n8:16:32:64-S128"
target triple = "x86_64-pc-linux-gnu"

%struct.strvec = type { ptr, i64, i64 }
%struct.credential_capability = type { i8, [3 x i8] }
%struct.credential = type { %struct.string_list, %struct.strvec, %struct.strvec, %struct.strvec, i16, [2 x i8], %struct.credential_capability, %struct.credential_capability, ptr, ptr, ptr, ptr, ptr, ptr, ptr, i64, ptr }
%struct.string_list = type { ptr, i64, i64, i8, ptr }

@.str.4 = private unnamed_addr constant [9 x i8] c"username\00", align 1
@.str.35 = private unnamed_addr constant [12 x i8] c"credential.\00", align 1
@.str.36 = private unnamed_addr constant [7 x i8] c"helper\00", align 1
@.str.37 = private unnamed_addr constant [12 x i8] c"usehttppath\00", align 1
@.str.38 = private unnamed_addr constant [15 x i8] c"sanitizeprompt\00", align 1
@.str.39 = private unnamed_addr constant [16 x i8] c"protectprotocol\00", align 1

; Function Attrs: inlinehint nounwind uwtable
define internal i32 @const_error() #7 {
  ret i32 -1
}

; Function Attrs: inlinehint nounwind uwtable
define internal zeroext i1 @skip_prefix(ptr noundef %0, ptr noundef %1, ptr noundef %2) #7 {
  %4 = alloca i1, align 1
  %5 = alloca ptr, align 8
  %6 = alloca ptr, align 8
  %7 = alloca ptr, align 8
  store ptr %0, ptr %5, align 8, !tbaa !32
  store ptr %1, ptr %6, align 8, !tbaa !32
  store ptr %2, ptr %7, align 8, !tbaa !77
  br label %8

8:                                                ; preds = %16, %3
  %9 = load ptr, ptr %6, align 8, !tbaa !32
  %10 = load i8, ptr %9, align 1, !tbaa !36
  %11 = icmp ne i8 %10, 0
  br i1 %11, label %15, label %12

12:                                               ; preds = %8
  %13 = load ptr, ptr %5, align 8, !tbaa !32
  %14 = load ptr, ptr %7, align 8, !tbaa !77
  store ptr %13, ptr %14, align 8, !tbaa !32
  store i1 true, ptr %4, align 1
  br label %27

15:                                               ; preds = %8
  br label %16

16:                                               ; preds = %15
  %17 = load ptr, ptr %5, align 8, !tbaa !32
  %18 = getelementptr inbounds nuw i8, ptr %17, i32 1
  store ptr %18, ptr %5, align 8, !tbaa !32
  %19 = load i8, ptr %17, align 1, !tbaa !36
  %20 = sext i8 %19 to i32
  %21 = load ptr, ptr %6, align 8, !tbaa !32
  %22 = getelementptr inbounds nuw i8, ptr %21, i32 1
  store ptr %22, ptr %6, align 8, !tbaa !32
  %23 = load i8, ptr %21, align 1, !tbaa !36
  %24 = sext i8 %23 to i32
  %25 = icmp eq i32 %20, %24
  br i1 %25, label %8, label %26, !llvm.loop !78

26:                                               ; preds = %16
  store i1 false, ptr %4, align 1
  br label %27

27:                                               ; preds = %26, %12
  %28 = load i1, ptr %4, align 1
  ret i1 %28
}

; Function Attrs: nounwind uwtable
define internal i32 @credential_config_callback(ptr noundef %0, ptr noundef %1, ptr noundef %2, ptr noundef %3) #0 {
  %5 = alloca i32, align 4
  %6 = alloca ptr, align 8
  %7 = alloca ptr, align 8
  %8 = alloca ptr, align 8
  %9 = alloca ptr, align 8
  %10 = alloca ptr, align 8
  %11 = alloca ptr, align 8
  %12 = alloca i32, align 4
  store ptr %0, ptr %6, align 8, !tbaa !32
  store ptr %1, ptr %7, align 8, !tbaa !32
  store ptr %2, ptr %8, align 8, !tbaa !71
  store ptr %3, ptr %9, align 8, !tbaa !26
  call void @llvm.lifetime.start.p0(i64 8, ptr %10) #10
  %13 = load ptr, ptr %9, align 8, !tbaa !26
  store ptr %13, ptr %10, align 8, !tbaa !4
  call void @llvm.lifetime.start.p0(i64 8, ptr %11) #10
  %14 = load ptr, ptr %6, align 8, !tbaa !32
  %15 = call zeroext i1 @skip_prefix(ptr noundef %14, ptr noundef @.str.35, ptr noundef %11)
  br i1 %15, label %17, label %16

16:                                               ; preds = %4
  store i32 0, ptr %5, align 4
  store i32 1, ptr %12, align 4
  br label %115

17:                                               ; preds = %4
  %18 = load ptr, ptr %7, align 8, !tbaa !32
  %19 = icmp ne ptr %18, null
  br i1 %19, label %24, label %20

20:                                               ; preds = %17
  %21 = load ptr, ptr %6, align 8, !tbaa !32
  %22 = call i32 @config_error_nonbool(ptr noundef %21)
  %23 = call i32 @const_error()
  store i32 %23, ptr %5, align 4
  store i32 1, ptr %12, align 4
  br label %115

24:                                               ; preds = %17
  %25 = load ptr, ptr %11, align 8, !tbaa !32
  %26 = call i32 @strcmp(ptr noundef %25, ptr noundef @.str.36) #11
  %27 = icmp ne i32 %26, 0
  br i1 %27, label %41, label %28

28:                                               ; preds = %24
  %29 = load ptr, ptr %7, align 8, !tbaa !32
  %30 = load i8, ptr %29, align 1, !tbaa !36
  %31 = icmp ne i8 %30, 0
  br i1 %31, label %32, label %37

32:                                               ; preds = %28
  %33 = load ptr, ptr %10, align 8, !tbaa !4
  %34 = getelementptr inbounds nuw %struct.credential, ptr %33, i32 0, i32 0
  %35 = load ptr, ptr %7, align 8, !tbaa !32
  %36 = call ptr @string_list_append(ptr noundef %34, ptr noundef %35)
  br label %40

37:                                               ; preds = %28
  %38 = load ptr, ptr %10, align 8, !tbaa !4
  %39 = getelementptr inbounds nuw %struct.credential, ptr %38, i32 0, i32 0
  call void @string_list_clear(ptr noundef %39, i32 noundef 0)
  br label %40

40:                                               ; preds = %37, %32
  br label %114

41:                                               ; preds = %24
  %42 = load ptr, ptr %11, align 8, !tbaa !32
  %43 = call i32 @strcmp(ptr noundef %42, ptr noundef @.str.4) #11
  %44 = icmp ne i32 %43, 0
  br i1 %44, label %62, label %45

45:                                               ; preds = %41
  %46 = load ptr, ptr %10, align 8, !tbaa !4
  %47 = getelementptr inbounds nuw %struct.credential, ptr %46, i32 0, i32 4
  %48 = load i16, ptr %47, align 8
  %49 = lshr i16 %48, 7
  %50 = and i16 %49, 1
  %51 = zext i16 %50 to i32
  %52 = icmp ne i32 %51, 0
  br i1 %52, label %61, label %53

53:                                               ; preds = %45
  %54 = load ptr, ptr %10, align 8, !tbaa !4
  %55 = getelementptr inbounds nuw %struct.credential, ptr %54, i32 0, i32 8
  %56 = load ptr, ptr %55, align 8, !tbaa !21
  call void @free(ptr noundef %56) #10
  %57 = load ptr, ptr %7, align 8, !tbaa !32
  %58 = call ptr @xstrdup(ptr noundef %57)
  %59 = load ptr, ptr %10, align 8, !tbaa !4
  %60 = getelementptr inbounds nuw %struct.credential, ptr %59, i32 0, i32 8
  store ptr %58, ptr %60, align 8, !tbaa !21
  br label %61

61:                                               ; preds = %53, %45
  br label %113

62:                                               ; preds = %41
  %63 = load ptr, ptr %11, align 8, !tbaa !32
  %64 = call i32 @strcmp(ptr noundef %63, ptr noundef @.str.37) #11
  %65 = icmp ne i32 %64, 0
  br i1 %65, label %78, label %66

66:                                               ; preds = %62
  %67 = load ptr, ptr %6, align 8, !tbaa !32
  %68 = load ptr, ptr %7, align 8, !tbaa !32
  %69 = call i32 @git_config_bool(ptr noundef %67, ptr noundef %68)
  %70 = load ptr, ptr %10, align 8, !tbaa !4
  %71 = getelementptr inbounds nuw %struct.credential, ptr %70, i32 0, i32 4
  %72 = trunc i32 %69 to i16
  %73 = load i16, ptr %71, align 8
  %74 = and i16 %72, 1
  %75 = shl i16 %74, 6
  %76 = and i16 %73, -65
  %77 = or i16 %76, %75
  store i16 %77, ptr %71, align 8
  br label %112

78:                                               ; preds = %62
  %79 = load ptr, ptr %11, align 8, !tbaa !32
  %80 = call i32 @strcmp(ptr noundef %79, ptr noundef @.str.38) #11
  %81 = icmp ne i32 %80, 0
  br i1 %81, label %94, label %82

82:                                               ; preds = %78
  %83 = load ptr, ptr %6, align 8, !tbaa !32
  %84 = load ptr, ptr %7, align 8, !tbaa !32
  %85 = call i32 @git_config_bool(ptr noundef %83, ptr noundef %84)
  %86 = load ptr, ptr %10, align 8, !tbaa !4
  %87 = getelementptr inbounds nuw %struct.credential, ptr %86, i32 0, i32 4
  %88 = trunc i32 %85 to i16
  %89 = load i16, ptr %87, align 8
  %90 = and i16 %88, 1
  %91 = shl i16 %90, 8
  %92 = and i16 %89, -257
  %93 = or i16 %92, %91
  store i16 %93, ptr %87, align 8
  br label %111

94:                                               ; preds = %78
  %95 = load ptr, ptr %11, align 8, !tbaa !32
  %96 = call i32 @strcmp(ptr noundef %95, ptr noundef @.str.39) #11
  %97 = icmp ne i32 %96, 0
  br i1 %97, label %110, label %98

98:                                               ; preds = %94
  %99 = load ptr, ptr %6, align 8, !tbaa !32
  %100 = load ptr, ptr %7, align 8, !tbaa !32
  %101 = call i32 @git_config_bool(ptr noundef %99, ptr noundef %100)
  %102 = load ptr, ptr %10, align 8, !tbaa !4
  %103 = getelementptr inbounds nuw %struct.credential, ptr %102, i32 0, i32 4
  %104 = trunc i32 %101 to i16
  %105 = load i16, ptr %103, align 8
  %106 = and i16 %104, 1
  %107 = shl i16 %106, 9
  %108 = and i16 %105, -513
  %109 = or i16 %108, %107
  store i16 %109, ptr %103, align 8
  br label %110

110:                                              ; preds = %98, %94
  br label %111

111:                                              ; preds = %110, %82
  br label %112

112:                                              ; preds = %111, %66
  br label %113

113:                                              ; preds = %112, %61
  br label %114

114:                                              ; preds = %113, %40
  store i32 0, ptr %5, align 4
  store i32 1, ptr %12, align 4
  br label %115

115:                                              ; preds = %114, %20, %16
  call void @llvm.lifetime.end.p0(i64 8, ptr %11) #10
  call void @llvm.lifetime.end.p0(i64 8, ptr %10) #10
  %116 = load i32, ptr %5, align 4
  ret i32 %116
}