; Function Attrs: nounwind uwtable
define internal range(i32 -1, 1) i32 @credential_config_callback(ptr noundef %0, ptr noundef %1, ptr readnone captures(none) %2, ptr noundef %3) #3 {
  %scevgep.i = getelementptr i8, ptr %0, i64 11
  br label %5

5:                                                ; preds = %7, %4
  %.07.i = phi ptr [ %0, %4 ], [ %8, %7 ]
  %.06.idx.i = phi i64 [ 0, %4 ], [ %.06.add.i, %7 ]
  %.06.ptr.i = getelementptr inbounds nuw i8, ptr @.str.35, i64 %.06.idx.i
  %6 = load i8, ptr %.06.ptr.i, align 1, !tbaa !27
  %exitcond.i = icmp eq i64 %.06.idx.i, 11
  br i1 %exitcond.i, label %skip_prefix.exit, label %7

7:                                                ; preds = %5
  %8 = getelementptr inbounds nuw i8, ptr %.07.i, i64 1
  %9 = load i8, ptr %.07.i, align 1, !tbaa !27
  %.06.add.i = add nuw nsw i64 %.06.idx.i, 1
  %10 = icmp eq i8 %9, %6
  br i1 %10, label %5, label %skip_prefix.exit, !llvm.loop !61

skip_prefix.exit:                                 ; preds = %5, %7
  %.not.i = icmp eq i8 %6, 0
  br i1 %.not.i, label %11, label %64

11:                                               ; preds = %skip_prefix.exit
  %.not = icmp eq ptr %1, null
  br i1 %.not, label %12, label %14

12:                                               ; preds = %11
  %13 = tail call i32 @config_error_nonbool(ptr noundef %0) #19
  br label %64

14:                                               ; preds = %11
  %15 = tail call i32 @strcmp(ptr noundef nonnull dereferenceable(1) %scevgep.i, ptr noundef nonnull dereferenceable(7) @.str.36) #20
  %.not22 = icmp eq i32 %15, 0
  br i1 %.not22, label %16, label %21

16:                                               ; preds = %14
  %17 = load i8, ptr %1, align 1, !tbaa !27
  %.not23 = icmp eq i8 %17, 0
  br i1 %.not23, label %20, label %18

18:                                               ; preds = %16
  %19 = tail call ptr @string_list_append(ptr noundef %3, ptr noundef nonnull %1) #19
  br label %64

20:                                               ; preds = %16
  tail call void @string_list_clear(ptr noundef %3, i32 noundef 0) #19
  br label %64

21:                                               ; preds = %14
  %22 = tail call i32 @strcmp(ptr noundef nonnull dereferenceable(1) %scevgep.i, ptr noundef nonnull dereferenceable(9) @.str.4) #20
  %.not24 = icmp eq i32 %22, 0
  br i1 %.not24, label %23, label %31

23:                                               ; preds = %21
  %24 = getelementptr inbounds nuw i8, ptr %3, i64 112
  %25 = load i16, ptr %24, align 8
  %26 = and i16 %25, 128
  %.not25 = icmp eq i16 %26, 0
  br i1 %.not25, label %27, label %64

27:                                               ; preds = %23
  %28 = getelementptr inbounds nuw i8, ptr %3, i64 128
  %29 = load ptr, ptr %28, align 8, !tbaa !21
  tail call void @free(ptr noundef %29) #19
  %30 = tail call ptr @xstrdup(ptr noundef nonnull %1) #19
  store ptr %30, ptr %28, align 8, !tbaa !21
  br label %64

31:                                               ; preds = %21
  %32 = tail call i32 @strcmp(ptr noundef nonnull dereferenceable(1) %scevgep.i, ptr noundef nonnull dereferenceable(12) @.str.37) #20
  %.not26 = icmp eq i32 %32, 0
  br i1 %.not26, label %33, label %42

33:                                               ; preds = %31
  %34 = tail call i32 @git_config_bool(ptr noundef %0, ptr noundef nonnull %1) #19
  %35 = getelementptr inbounds nuw i8, ptr %3, i64 112
  %36 = trunc i32 %34 to i16
  %37 = load i16, ptr %35, align 8
  %38 = shl i16 %36, 6
  %39 = and i16 %38, 64
  %40 = and i16 %37, -65
  %41 = or disjoint i16 %39, %40
  store i16 %41, ptr %35, align 8
  br label %64

42:                                               ; preds = %31
  %43 = tail call i32 @strcmp(ptr noundef nonnull dereferenceable(1) %scevgep.i, ptr noundef nonnull dereferenceable(15) @.str.38) #20
  %.not27 = icmp eq i32 %43, 0
  br i1 %.not27, label %44, label %53

44:                                               ; preds = %42
  %45 = tail call i32 @git_config_bool(ptr noundef %0, ptr noundef nonnull %1) #19
  %46 = getelementptr inbounds nuw i8, ptr %3, i64 112
  %47 = trunc i32 %45 to i16
  %48 = load i16, ptr %46, align 8
  %49 = shl i16 %47, 8
  %50 = and i16 %49, 256
  %51 = and i16 %48, -257
  %52 = or disjoint i16 %50, %51
  store i16 %52, ptr %46, align 8
  br label %64

53:                                               ; preds = %42
  %54 = tail call i32 @strcmp(ptr noundef nonnull dereferenceable(1) %scevgep.i, ptr noundef nonnull dereferenceable(16) @.str.39) #20
  %.not28 = icmp eq i32 %54, 0
  br i1 %.not28, label %55, label %64

55:                                               ; preds = %53
  %56 = tail call i32 @git_config_bool(ptr noundef %0, ptr noundef nonnull %1) #19
  %57 = getelementptr inbounds nuw i8, ptr %3, i64 112
  %58 = trunc i32 %56 to i16
  %59 = load i16, ptr %57, align 8
  %60 = shl i16 %58, 9
  %61 = and i16 %60, 512
  %62 = and i16 %59, -513
  %63 = or disjoint i16 %61, %62
  store i16 %63, ptr %57, align 8
  br label %64

64:                                               ; preds = %20, %18, %33, %53, %55, %44, %23, %27, %skip_prefix.exit, %12
  %.0 = phi i32 [ -1, %12 ], [ 0, %skip_prefix.exit ], [ 0, %27 ], [ 0, %23 ], [ 0, %44 ], [ 0, %55 ], [ 0, %53 ], [ 0, %33 ], [ 0, %18 ], [ 0, %20 ]
  ret i32 %.0
}